target datalayout = "e-m:e-p270:32:32-p271:32:32-p272:64:64-i64:64-i128:128-f80:128-n8:16:32:64-S128"
target triple = "x86_64-pc-linux-gnu"

%struct.SDL_WaylandDataDevice = type { ptr, ptr, ptr, i32, ptr, ptr, ptr, i8, i8, ptr, i32, ptr }

@WAYLAND_wl_proxy_get_id = external global ptr, align 8
@WAYLAND_wl_proxy_get_user_data = external global ptr, align 8
@.str.22 = private unnamed_addr constant [78 x i8] c". In data_device_listener . data_device_handle_selection on data_offer 0x%08x\00", align 1

; Function Attrs: inlinehint nounwind uwtable
define internal ptr @wl_data_offer_get_user_data(ptr noundef %0) #2 {
  %2 = alloca ptr, align 8
  store ptr %0, ptr %2, align 8
  %3 = load ptr, ptr @WAYLAND_wl_proxy_get_user_data, align 8
  %4 = load ptr, ptr %2, align 8
  %5 = call ptr %3(ptr noundef %4)
  ret ptr %5
}

; Function Attrs: nounwind uwtable
define internal void @data_device_handle_selection(ptr noundef %0, ptr noundef %1, ptr noundef %2) #0 {
  %4 = alloca ptr, align 8
  %5 = alloca ptr, align 8
  %6 = alloca ptr, align 8
  %7 = alloca ptr, align 8
  %8 = alloca ptr, align 8
  store ptr %0, ptr %4, align 8
  store ptr %1, ptr %5, align 8
  store ptr %2, ptr %6, align 8
  call void @llvm.lifetime.start.p0(i64 8, ptr %7) #10
  %9 = load ptr, ptr %4, align 8
  store ptr %9, ptr %7, align 8
  call void @llvm.lifetime.start.p0(i64 8, ptr %8) #10
  store ptr null, ptr %8, align 8
  %10 = load ptr, ptr %6, align 8
  %11 = icmp ne ptr %10, null
  br i1 %11, label %12, label %15

12:                                               ; preds = %3
  %13 = load ptr, ptr %6, align 8
  %14 = call ptr @wl_data_offer_get_user_data(ptr noundef %13)
  store ptr %14, ptr %8, align 8
  br label %15

15:                                               ; preds = %12, %3
  %16 = load ptr, ptr %6, align 8
  %17 = icmp ne ptr %16, null
  br i1 %17, label %18, label %22

18:                                               ; preds = %15
  %19 = load ptr, ptr @WAYLAND_wl_proxy_get_id, align 8
  %20 = load ptr, ptr %6, align 8
  %21 = call i32 %19(ptr noundef %20)
  br label %23

22:                                               ; preds = %15
  br label %23

23:                                               ; preds = %22, %18
  %24 = phi i32 [ %21, %18 ], [ -1, %22 ]
  call void (i32, ptr, ...) @SDL_LogTrace_REAL(i32 noundef 7, ptr noundef @.str.22, i32 noundef %24)
  %25 = load ptr, ptr %7, align 8
  %26 = getelementptr inbounds nuw %struct.SDL_WaylandDataDevice, ptr %25, i32 0, i32 5
  %27 = load ptr, ptr %26, align 8
  %28 = load ptr, ptr %8, align 8
  %29 = icmp ne ptr %27, %28
  br i1 %29, label %30, label %37

30:                                               ; preds = %23
  %31 = load ptr, ptr %7, align 8
  %32 = getelementptr inbounds nuw %struct.SDL_WaylandDataDevice, ptr %31, i32 0, i32 5
  %33 = load ptr, ptr %32, align 8
  call void @Wayland_data_offer_destroy(ptr noundef %33)
  %34 = load ptr, ptr %8, align 8
  %35 = load ptr, ptr %7, align 8
  %36 = getelementptr inbounds nuw %struct.SDL_WaylandDataDevice, ptr %35, i32 0, i32 5
  store ptr %34, ptr %36, align 8
  br label %37

37:                                               ; preds = %30, %23
  %38 = load ptr, ptr %8, align 8
  call void @Wayland_data_offer_notify_from_mimes(ptr noundef %38, i1 noundef zeroext true)
  call void @llvm.lifetime.end.p0(i64 8, ptr %8) #10
  call void @llvm.lifetime.end.p0(i64 8, ptr %7) #10
  ret void
}