; Function Attrs: nounwind uwtable
define internal void @data_device_handle_selection(ptr noundef captures(none) %0, ptr readnone captures(none) %1, ptr noundef %2) #0 {
  %.not = icmp eq ptr %2, null
  br i1 %.not, label %.thread, label %4

4:                                                ; preds = %3
  %5 = load ptr, ptr @WAYLAND_wl_proxy_get_user_data, align 8
  %6 = tail call ptr %5(ptr noundef nonnull %2) #12
  %7 = load ptr, ptr @WAYLAND_wl_proxy_get_id, align 8
  %8 = tail call i32 %7(ptr noundef nonnull %2) #12
  br label %.thread

.thread:                                          ; preds = %3, %4
  %.015 = phi ptr [ %6, %4 ], [ null, %3 ]
  %9 = phi i32 [ %8, %4 ], [ -1, %3 ]
  tail call void (i32, ptr, ...) @SDL_LogTrace_REAL(i32 noundef 7, ptr noundef nonnull @.str.22, i32 noundef %9) #12
  %10 = getelementptr inbounds nuw i8, ptr %0, i64 40
  %11 = load ptr, ptr %10, align 8
  %.not13 = icmp eq ptr %11, %.015
  br i1 %.not13, label %13, label %12

12:                                               ; preds = %.thread
  tail call void @Wayland_data_offer_destroy(ptr noundef %11) #12
  store ptr %.015, ptr %10, align 8
  br label %13

13:                                               ; preds = %12, %.thread
  tail call void @Wayland_data_offer_notify_from_mimes(ptr noundef %.015, i1 noundef zeroext true) #12
  ret void
}